target datalayout = "e-m:e-p270:32:32-p271:32:32-p272:64:64-i64:64-i128:128-f80:128-n8:16:32:64-S128"
target triple = "x86_64-unknown-linux-gnu"

%class.app = type { %class.expr, ptr, i32, [0 x ptr] }
%class.expr = type { %class.ast }
%class.ast = type { i32, i24, i32, i32 }

; Function Attrs: mustprogress nounwind uwtable
define linkonce_odr hidden noundef i32 @_ZN3smt5enode14get_enode_sizeEj(i32 noundef %num_args) #4 comdat align 2 {
entry:
  %num_args.addr = alloca i32, align 4
  store i32 %num_args, ptr %num_args.addr, align 4
  %0 = load i32, ptr %num_args.addr, align 4
  %conv = zext i32 %0 to i64
  %mul = mul i64 %conv, 8
  %add = add i64 112, %mul
  %conv1 = trunc i64 %add to i32
  ret i32 %conv1
}

; Function Attrs: mustprogress nounwind uwtable
define linkonce_odr hidden noundef i32 @_ZNK3app12get_num_argsEv(ptr noundef nonnull align 8 dereferenceable(32) %this) #4 comdat align 2 {
entry:
  %this.addr = alloca ptr, align 8
  store ptr %this, ptr %this.addr, align 8
  %this1 = load ptr, ptr %this.addr, align 8
  %m_num_args = getelementptr inbounds %class.app, ptr %this1, i32 0, i32 2
  %0 = load i32, ptr %m_num_args, align 8
  ret i32 %0
}

; Function Attrs: mustprogress uwtable
define hidden noundef ptr @_ZN3smt5enode8mk_dummyER11ast_managerRK10ptr_vectorIS0_EP3app(ptr noundef nonnull align 8 dereferenceable(976) %m, ptr noundef nonnull align 8 dereferenceable(8) %app2enode, ptr noundef %owner) #5 align 2 {
entry:
  %m.addr = alloca ptr, align 8
  %app2enode.addr = alloca ptr, align 8
  %owner.addr = alloca ptr, align 8
  %sz = alloca i32, align 4
  %mem = alloca ptr, align 8
  store ptr %m, ptr %m.addr, align 8
  store ptr %app2enode, ptr %app2enode.addr, align 8
  store ptr %owner, ptr %owner.addr, align 8
  %0 = load ptr, ptr %owner.addr, align 8
  %call = call noundef i32 @_ZNK3app12get_num_argsEv(ptr noundef nonnull align 8 dereferenceable(32) %0)
  %call1 = call noundef i32 @_ZN3smt5enode14get_enode_sizeEj(i32 noundef %call)
  store i32 %call1, ptr %sz, align 4
  %1 = load i32, ptr %sz, align 4
  %conv = zext i32 %1 to i64
  %mul = mul i64 1, %conv
  %call2 = call noalias noundef ptr @_ZN6memory8allocateEm(i64 noundef %mul)
  store ptr %call2, ptr %mem, align 8
  %2 = load ptr, ptr %m.addr, align 8
  %3 = load ptr, ptr %mem, align 8
  %4 = load ptr, ptr %app2enode.addr, align 8
  %5 = load ptr, ptr %owner.addr, align 8
  %call3 = call noundef ptr @_ZN3smt5enode4initER11ast_managerPvRK10ptr_vectorIS0_EP3appjbbjbb(ptr noundef nonnull align 8 dereferenceable(976) %2, ptr noundef %3, ptr noundef nonnull align 8 dereferenceable(8) %4, ptr noundef %5, i32 noundef 0, i1 noundef zeroext false, i1 noundef zeroext false, i32 noundef 0, i1 noundef zeroext true, i1 noundef zeroext false)
  ret ptr %call3
}