; Function Attrs: mustprogress uwtable
define hidden noundef ptr @_ZN3smt5enode8mk_dummyER11ast_managerRK10ptr_vectorIS0_EP3app(ptr noundef nonnull align 8 dereferenceable(976) %m, ptr nocapture noundef nonnull readonly align 8 dereferenceable(8) %app2enode, ptr noundef %owner) local_unnamed_addr #3 align 2 {
entry:
  %m_num_args.i = getelementptr inbounds i8, ptr %owner, i64 24
  %0 = load i32, ptr %m_num_args.i, align 8
  %mul.i = shl i32 %0, 3
  %add.i = add i32 %mul.i, 112
  %conv = zext i32 %add.i to i64
  %call2 = tail call noalias noundef ptr @_ZN6memory8allocateEm(i64 noundef %conv)
  %call3 = tail call noundef ptr @_ZN3smt5enode4initER11ast_managerPvRK10ptr_vectorIS0_EP3appjbbjbb(ptr noundef nonnull align 8 dereferenceable(976) %m, ptr noundef %call2, ptr noundef nonnull align 8 dereferenceable(8) %app2enode, ptr noundef nonnull %owner, i32 noundef 0, i1 noundef zeroext false, i1 noundef zeroext false, i32 noundef 0, i1 noundef zeroext true, i1 noundef zeroext false)
  ret ptr %call2
}